target datalayout = "e-m:e-p270:32:32-p271:32:32-p272:64:64-i64:64-i128:128-f80:128-n8:16:32:64-S128"
target triple = "x86_64-pc-linux-gnu"

%class.scoped_ptr = type { ptr }

; Function Attrs: mustprogress nounwind uwtable
define linkonce_odr hidden noundef ptr @_ZN10scoped_ptrIN7datalog8rule_setEE6detachEv(ptr noundef nonnull align 8 dereferenceable(8) %0) #6 comdat align 2 {
  %2 = alloca ptr, align 8
  %3 = alloca ptr, align 8
  store ptr %0, ptr %2, align 8, !tbaa !44
  %4 = load ptr, ptr %2, align 8
  call void @llvm.lifetime.start.p0(i64 8, ptr %3) #3
  %5 = getelementptr inbounds nuw %class.scoped_ptr, ptr %4, i32 0, i32 0
  %6 = load ptr, ptr %5, align 8, !tbaa !46
  store ptr %6, ptr %3, align 8, !tbaa !8
  %7 = getelementptr inbounds nuw %class.scoped_ptr, ptr %4, i32 0, i32 0
  store ptr null, ptr %7, align 8, !tbaa !46
  %8 = load ptr, ptr %3, align 8, !tbaa !8
  call void @llvm.lifetime.end.p0(i64 8, ptr %3) #3
  ret ptr %8
}

; Function Attrs: mustprogress nounwind uwtable
define linkonce_odr hidden noundef nonnull align 8 dereferenceable(248) ptr @_ZN10scoped_ptrIN7datalog8rule_setEEdeEv(ptr noundef nonnull align 8 dereferenceable(8) %0) #6 comdat align 2 {
  %2 = alloca ptr, align 8
  store ptr %0, ptr %2, align 8, !tbaa !44
  %3 = load ptr, ptr %2, align 8
  %4 = getelementptr inbounds nuw %class.scoped_ptr, ptr %3, i32 0, i32 0
  %5 = load ptr, ptr %4, align 8, !tbaa !46
  ret ptr %5
}

; Function Attrs: mustprogress nounwind uwtable
define linkonce_odr hidden noundef zeroext i1 @_ZNK10scoped_ptrIN7datalog8rule_setEEcvbEv(ptr noundef nonnull align 8 dereferenceable(8) %0) #6 comdat align 2 {
  %2 = alloca ptr, align 8
  store ptr %0, ptr %2, align 8, !tbaa !44
  %3 = load ptr, ptr %2, align 8
  %4 = getelementptr inbounds nuw %class.scoped_ptr, ptr %3, i32 0, i32 0
  %5 = load ptr, ptr %4, align 8, !tbaa !46
  %6 = icmp ne ptr %5, null
  ret i1 %6
}

; Function Attrs: mustprogress nounwind uwtable
define linkonce_odr hidden void @_ZN10scoped_ptrIN7datalog8rule_setEEC2EPS1_(ptr noundef nonnull align 8 dereferenceable(8) %0, ptr noundef %1) unnamed_addr #6 comdat align 2 {
  %3 = alloca ptr, align 8
  %4 = alloca ptr, align 8
  store ptr %0, ptr %3, align 8, !tbaa !44
  store ptr %1, ptr %4, align 8, !tbaa !8
  %5 = load ptr, ptr %3, align 8
  %6 = getelementptr inbounds nuw %class.scoped_ptr, ptr %5, i32 0, i32 0
  %7 = load ptr, ptr %4, align 8, !tbaa !8
  store ptr %7, ptr %6, align 8, !tbaa !46
  ret void
}

; Function Attrs: mustprogress uwtable
define hidden noundef ptr @_ZN7datalog13mk_coi_filterclERKNS_8rule_setE(ptr noundef nonnull align 8 dereferenceable(56) %0, ptr noundef nonnull align 8 dereferenceable(248) %1) unnamed_addr #4 align 2 personality ptr @__gxx_personality_v0 {
  %3 = alloca ptr, align 8
  %4 = alloca ptr, align 8
  %5 = alloca %class.scoped_ptr, align 8
  %6 = alloca %class.scoped_ptr, align 8
  %7 = alloca ptr, align 8
  %8 = alloca i32, align 4
  store ptr %0, ptr %3, align 8, !tbaa !3
  store ptr %1, ptr %4, align 8, !tbaa !8
  %9 = load ptr, ptr %3, align 8
  call void @llvm.lifetime.start.p0(i64 8, ptr %5) #3
  %10 = load ptr, ptr %4, align 8, !tbaa !8
  %11 = call noundef ptr @_ZN7datalog13mk_coi_filter8top_downERKNS_8rule_setE(ptr noundef nonnull align 8 dereferenceable(56) %9, ptr noundef nonnull align 8 dereferenceable(248) %10)
  call void @_ZN10scoped_ptrIN7datalog8rule_setEEC2EPS1_(ptr noundef nonnull align 8 dereferenceable(8) %5, ptr noundef %11)
  call void @llvm.lifetime.start.p0(i64 8, ptr %6) #3
  %12 = invoke noundef zeroext i1 @_ZNK10scoped_ptrIN7datalog8rule_setEEcvbEv(ptr noundef nonnull align 8 dereferenceable(8) %5)
          to label %13 unwind label %34

13:                                               ; preds = %2
  br i1 %12, label %14, label %17

14:                                               ; preds = %13
  %15 = invoke noundef nonnull align 8 dereferenceable(248) ptr @_ZN10scoped_ptrIN7datalog8rule_setEEdeEv(ptr noundef nonnull align 8 dereferenceable(8) %5)
          to label %16 unwind label %34

16:                                               ; preds = %14
  br label %19

17:                                               ; preds = %13
  %18 = load ptr, ptr %4, align 8, !tbaa !8
  br label %19

19:                                               ; preds = %17, %16
  %20 = phi ptr [ %15, %16 ], [ %18, %17 ]
  %21 = invoke noundef ptr @_ZN7datalog13mk_coi_filter9bottom_upERKNS_8rule_setE(ptr noundef nonnull align 8 dereferenceable(56) %9, ptr noundef nonnull align 8 dereferenceable(248) %20)
          to label %22 unwind label %34

22:                                               ; preds = %19
  invoke void @_ZN10scoped_ptrIN7datalog8rule_setEEC2EPS1_(ptr noundef nonnull align 8 dereferenceable(8) %6, ptr noundef %21)
          to label %23 unwind label %34

23:                                               ; preds = %22
  %24 = invoke noundef zeroext i1 @_ZNK10scoped_ptrIN7datalog8rule_setEEcvbEv(ptr noundef nonnull align 8 dereferenceable(8) %6)
          to label %25 unwind label %38

25:                                               ; preds = %23
  br i1 %24, label %26, label %29

26:                                               ; preds = %25
  %27 = invoke noundef ptr @_ZN10scoped_ptrIN7datalog8rule_setEE6detachEv(ptr noundef nonnull align 8 dereferenceable(8) %6)
          to label %28 unwind label %38

28:                                               ; preds = %26
  br label %32

29:                                               ; preds = %25
  %30 = invoke noundef ptr @_ZN10scoped_ptrIN7datalog8rule_setEE6detachEv(ptr noundef nonnull align 8 dereferenceable(8) %5)
          to label %31 unwind label %38

31:                                               ; preds = %29
  br label %32

32:                                               ; preds = %31, %28
  %33 = phi ptr [ %27, %28 ], [ %30, %31 ]
  call void @_ZN10scoped_ptrIN7datalog8rule_setEED2Ev(ptr noundef nonnull align 8 dereferenceable(8) %6) #3
  call void @llvm.lifetime.end.p0(i64 8, ptr %6) #3
  call void @_ZN10scoped_ptrIN7datalog8rule_setEED2Ev(ptr noundef nonnull align 8 dereferenceable(8) %5) #3
  call void @llvm.lifetime.end.p0(i64 8, ptr %5) #3
  ret ptr %33

34:                                               ; preds = %22, %19, %14, %2
  %35 = landingpad { ptr, i32 }
          cleanup
  %36 = extractvalue { ptr, i32 } %35, 0
  store ptr %36, ptr %7, align 8
  %37 = extractvalue { ptr, i32 } %35, 1
  store i32 %37, ptr %8, align 4
  br label %42

38:                                               ; preds = %29, %26, %23
  %39 = landingpad { ptr, i32 }
          cleanup
  %40 = extractvalue { ptr, i32 } %39, 0
  store ptr %40, ptr %7, align 8
  %41 = extractvalue { ptr, i32 } %39, 1
  store i32 %41, ptr %8, align 4
  call void @_ZN10scoped_ptrIN7datalog8rule_setEED2Ev(ptr noundef nonnull align 8 dereferenceable(8) %6) #3
  br label %42

42:                                               ; preds = %38, %34
  call void @llvm.lifetime.end.p0(i64 8, ptr %6) #3
  call void @_ZN10scoped_ptrIN7datalog8rule_setEED2Ev(ptr noundef nonnull align 8 dereferenceable(8) %5) #3
  call void @llvm.lifetime.end.p0(i64 8, ptr %5) #3
  br label %43

43:                                               ; preds = %42
  %44 = load ptr, ptr %7, align 8
  %45 = load i32, ptr %8, align 4
  %46 = insertvalue { ptr, i32 } poison, ptr %44, 0
  %47 = insertvalue { ptr, i32 } %46, i32 %45, 1
  resume { ptr, i32 } %47
}