; Function Attrs: mustprogress uwtable
define hidden noundef ptr @_ZN7datalog13mk_coi_filterclERKNS_8rule_setE(ptr noundef nonnull align 8 dereferenceable(56) %0, ptr noundef nonnull align 8 dereferenceable(248) %1) unnamed_addr #3 align 2 personality ptr @__gxx_personality_v0 {
  %3 = alloca %class.scoped_ptr, align 8
  call void @llvm.lifetime.start.p0(i64 8, ptr nonnull %3) #19
  %4 = tail call noundef ptr @_ZN7datalog13mk_coi_filter8top_downERKNS_8rule_setE(ptr noundef nonnull align 8 dereferenceable(56) %0, ptr noundef nonnull align 8 dereferenceable(248) %1)
  store ptr %4, ptr %3, align 8, !tbaa !3
  %.not = icmp eq ptr %4, null
  %spec.select = select i1 %.not, ptr %1, ptr %4
  %5 = invoke noundef ptr @_ZN7datalog13mk_coi_filter9bottom_upERKNS_8rule_setE(ptr noundef nonnull align 8 dereferenceable(56) %0, ptr noundef nonnull align 8 dereferenceable(248) %spec.select)
          to label %6 unwind label %12

6:                                                ; preds = %2
  %.not8 = icmp eq ptr %5, null
  %brmerge = or i1 %.not8, %.not
  %.mux = select i1 %.not8, ptr %4, ptr %5
  br i1 %brmerge, label %_ZN10scoped_ptrIN7datalog8rule_setEED2Ev.exit4, label %7

7:                                                ; preds = %6
  tail call void @_ZN7datalog8rule_setD1Ev(ptr noundef nonnull align 8 dereferenceable(248) %4) #19
  invoke void @_ZN6memory10deallocateEPv(ptr noundef nonnull %4)
          to label %_ZN10scoped_ptrIN7datalog8rule_setEED2Ev.exit4 unwind label %8

8:                                                ; preds = %7
  %9 = landingpad { ptr, i32 }
          catch ptr null
  %10 = extractvalue { ptr, i32 } %9, 0
  tail call void @__clang_call_terminate(ptr %10) #20
  unreachable

_ZN10scoped_ptrIN7datalog8rule_setEED2Ev.exit4:   ; preds = %6, %7
  %11 = phi ptr [ %5, %7 ], [ %.mux, %6 ]
  call void @llvm.lifetime.end.p0(i64 8, ptr nonnull %3) #19
  ret ptr %11

12:                                               ; preds = %2
  %13 = landingpad { ptr, i32 }
          cleanup
  call void @_ZN10scoped_ptrIN7datalog8rule_setEED2Ev(ptr noundef nonnull align 8 dereferenceable(8) %3) #19
  call void @llvm.lifetime.end.p0(i64 8, ptr nonnull %3) #19
  resume { ptr, i32 } %13
}